(dp0
S'SMeanMean'
p1
cnumpy.core.multiarray
scalar
p2
(cnumpy
dtype
p3
(S'f8'
p4
I0
I1
tp5
Rp6
(I3
S'<'
p7
NNNI-1
I-1
I0
tp8
bS'?[\xab\xe4\xc9\xf7\xd1?'
p9
tp10
Rp11
sS'success'
p12
I01
sS'error'
p13
Ns.